; Function Attrs: mustprogress uwtable
define internal void @_ZN10open_spiel11phantom_ttt12_GLOBAL__N_17FactoryERKSt3mapINSt7__cxx1112basic_stringIcSt11char_traitsIcESaIcEEENS_13GameParameterESt4lessIS8_ESaISt4pairIKS8_S9_EEE(ptr dead_on_unwind noalias writable sret(%"class.std::shared_ptr") align 8 %0, ptr noundef nonnull align 8 dereferenceable(48) %1) #3 personality ptr @__gxx_personality_v0 {
  %3 = alloca %"struct.open_spiel::GameType", align 8
  %4 = tail call noalias noundef nonnull dereferenceable(312) ptr @_Znwm(i64 noundef 312) #24
  invoke void @_ZN10open_spiel8GameTypeC2ERKS0_(ptr noundef nonnull align 8 dereferenceable(146) %3, ptr noundef nonnull align 8 dereferenceable(146) @_ZN10open_spiel11phantom_ttt12_GLOBAL__N_19kGameTypeE)
          to label %5 unwind label %.thread

5:                                                ; preds = %2
  invoke void @_ZN10open_spiel11phantom_ttt14PhantomTTTGameC1ERKSt3mapINSt7__cxx1112basic_stringIcSt11char_traitsIcESaIcEEENS_13GameParameterESt4lessIS8_ESaISt4pairIKS8_S9_EEENS_8GameTypeE(ptr noundef nonnull align 8 dereferenceable(308) %4, ptr noundef nonnull align 8 dereferenceable(48) %1, ptr noundef nonnull %3)
          to label %7 unwind label %.thread10

.thread10:                                        ; preds = %5
  %6 = landingpad { ptr, i32 }
          cleanup
  call void @_ZN10open_spiel8GameTypeD2Ev(ptr noundef nonnull align 8 dereferenceable(146) %3) #22
  br label %18

7:                                                ; preds = %5
  invoke void @_ZNSt12__shared_ptrIKN10open_spiel4GameELN9__gnu_cxx12_Lock_policyE2EEC2INS0_11phantom_ttt14PhantomTTTGameEvEEPT_(ptr noundef nonnull align 8 dereferenceable(16) %0, ptr noundef nonnull %4)
          to label %_ZNSt10shared_ptrIKN10open_spiel4GameEEC2INS0_11phantom_ttt14PhantomTTTGameEvEEPT_.exit unwind label %16

_ZNSt10shared_ptrIKN10open_spiel4GameEEC2INS0_11phantom_ttt14PhantomTTTGameEvEEPT_.exit: ; preds = %7
  %8 = getelementptr inbounds nuw i8, ptr %3, i64 96
  %9 = getelementptr inbounds i8, ptr %3, i64 112
  %10 = load ptr, ptr %9, align 8
  invoke void @_ZNSt8_Rb_treeINSt7__cxx1112basic_stringIcSt11char_traitsIcESaIcEEESt4pairIKS5_N10open_spiel13GameParameterEESt10_Select1stISA_ESt4lessIS5_ESaISA_EE8_M_eraseEPSt13_Rb_tree_nodeISA_E(ptr noundef nonnull align 8 dereferenceable(48) %8, ptr noundef %10)
          to label %_ZN10open_spiel8GameTypeD2Ev.exit unwind label %11

11:                                               ; preds = %_ZNSt10shared_ptrIKN10open_spiel4GameEEC2INS0_11phantom_ttt14PhantomTTTGameEvEEPT_.exit
  %12 = landingpad { ptr, i32 }
          catch ptr null
  %13 = extractvalue { ptr, i32 } %12, 0
  call void @__clang_call_terminate(ptr %13) #23
  unreachable

_ZN10open_spiel8GameTypeD2Ev.exit:                ; preds = %_ZNSt10shared_ptrIKN10open_spiel4GameEEC2INS0_11phantom_ttt14PhantomTTTGameEvEEPT_.exit
  %14 = getelementptr inbounds nuw i8, ptr %3, i64 32
  call void @_ZNSt7__cxx1112basic_stringIcSt11char_traitsIcESaIcEED1Ev(ptr noundef nonnull align 8 dereferenceable(32) %14) #22
  call void @_ZNSt7__cxx1112basic_stringIcSt11char_traitsIcESaIcEED1Ev(ptr noundef nonnull align 8 dereferenceable(32) %3) #22
  ret void

.thread:                                          ; preds = %2
  %15 = landingpad { ptr, i32 }
          cleanup
  br label %18

16:                                               ; preds = %7
  %17 = landingpad { ptr, i32 }
          cleanup
  call void @_ZN10open_spiel8GameTypeD2Ev(ptr noundef nonnull align 8 dereferenceable(146) %3) #22
  br label %19

18:                                               ; preds = %.thread10, %.thread
  %.pn9 = phi { ptr, i32 } [ %15, %.thread ], [ %6, %.thread10 ]
  call void @_ZdlPvm(ptr noundef nonnull %4, i64 noundef 312) #25
  br label %19

19:                                               ; preds = %16, %18
  %.pn8 = phi { ptr, i32 } [ %17, %16 ], [ %.pn9, %18 ]
  resume { ptr, i32 } %.pn8
}